target datalayout = "e-m:e-p270:32:32-p271:32:32-p272:64:64-i64:64-i128:128-f80:128-n8:16:32:64-S128"
target triple = "x86_64-pc-linux-gnu"

%struct._lv_msgbox_t = type { %struct._lv_obj_t, ptr, ptr, ptr, ptr }
%struct._lv_obj_t = type { ptr, ptr, ptr, ptr, ptr, %struct.lv_area_t, i32, i16, i16 }
%struct.lv_area_t = type { i32, i32, i32, i32 }

@lv_msgbox_class = constant { ptr, ptr, ptr, ptr, ptr, ptr, i32, i32, i8, i8, i8, [5 x i8] } { ptr @lv_obj_class, ptr null, ptr null, ptr null, ptr null, ptr @.str, i32 260, i32 1073741823, i8 0, i8 6, i8 0, [5 x i8] zeroinitializer }, align 8
@lv_msgbox_content_class = constant { ptr, ptr, ptr, ptr, ptr, ptr, i32, i32, i8, i8, i8, [5 x i8] } { ptr @lv_obj_class, ptr null, ptr null, ptr null, ptr null, ptr @.str.2, i32 536871012, i32 1073741823, i8 0, i8 4, i8 0, [5 x i8] zeroinitializer }, align 8
@lv_msgbox_backdrop_class = constant { ptr, ptr, ptr, ptr, ptr, ptr, i32, i32, i8, i8, i8, [5 x i8] } { ptr @lv_obj_class, ptr null, ptr null, ptr null, ptr null, ptr @.str.6, i32 536871012, i32 536871012, i8 0, i8 4, i8 0, [5 x i8] zeroinitializer }, align 8

; Function Attrs: nounwind uwtable
define ptr @lv_msgbox_create(ptr noundef %0) #0 {
  %2 = alloca ptr, align 8
  %3 = alloca ptr, align 8
  %4 = alloca i8, align 1
  %5 = alloca ptr, align 8
  %6 = alloca i32, align 4
  %7 = alloca ptr, align 8
  store ptr %0, ptr %3, align 8, !tbaa !3
  br label %8

8:                                                ; preds = %1
  br label %9

9:                                                ; preds = %8
  call void @llvm.lifetime.start.p0(i64 1, ptr %4) #4
  store i8 0, ptr %4, align 1, !tbaa !7
  %10 = load ptr, ptr %3, align 8, !tbaa !3
  %11 = icmp eq ptr %10, null
  br i1 %11, label %12, label %30

12:                                               ; preds = %9
  store i8 1, ptr %4, align 1, !tbaa !7
  %13 = call ptr @lv_layer_top()
  %14 = call ptr @lv_obj_class_create_obj(ptr noundef @lv_msgbox_backdrop_class, ptr noundef %13)
  store ptr %14, ptr %3, align 8, !tbaa !3
  br label %15

15:                                               ; preds = %12
  %16 = load ptr, ptr %3, align 8, !tbaa !3
  %17 = icmp ne ptr %16, null
  br i1 %17, label %24, label %18

18:                                               ; preds = %15
  br label %19

19:                                               ; preds = %18
  br label %20

20:                                               ; preds = %19
  br label %21

21:                                               ; preds = %20
  br label %22

22:                                               ; preds = %23, %21
  br label %23

23:                                               ; preds = %22
  br label %22

24:                                               ; preds = %15
  br label %25

25:                                               ; preds = %24
  br label %26

26:                                               ; preds = %25
  %27 = load ptr, ptr %3, align 8, !tbaa !3
  call void @lv_obj_class_init_obj(ptr noundef %27)
  %28 = load ptr, ptr %3, align 8, !tbaa !3
  call void @lv_obj_remove_flag(ptr noundef %28, i32 noundef 131072)
  %29 = load ptr, ptr %3, align 8, !tbaa !3
  call void @lv_obj_set_size(ptr noundef %29, i32 noundef 536871012, i32 noundef 536871012)
  br label %30

30:                                               ; preds = %26, %9
  call void @llvm.lifetime.start.p0(i64 8, ptr %5) #4
  %31 = load ptr, ptr %3, align 8, !tbaa !3
  %32 = call ptr @lv_obj_class_create_obj(ptr noundef @lv_msgbox_class, ptr noundef %31)
  store ptr %32, ptr %5, align 8, !tbaa !3
  br label %33

33:                                               ; preds = %30
  %34 = load ptr, ptr %5, align 8, !tbaa !3
  %35 = icmp ne ptr %34, null
  br i1 %35, label %42, label %36

36:                                               ; preds = %33
  br label %37

37:                                               ; preds = %36
  br label %38

38:                                               ; preds = %37
  br label %39

39:                                               ; preds = %38
  br label %40

40:                                               ; preds = %41, %39
  br label %41

41:                                               ; preds = %40
  br label %40

42:                                               ; preds = %33
  br label %43

43:                                               ; preds = %42
  br label %44

44:                                               ; preds = %43
  %45 = load ptr, ptr %5, align 8, !tbaa !3
  %46 = icmp eq ptr %45, null
  br i1 %46, label %47, label %48

47:                                               ; preds = %44
  store ptr null, ptr %2, align 8
  store i32 1, ptr %6, align 4
  br label %90

48:                                               ; preds = %44
  %49 = load ptr, ptr %5, align 8, !tbaa !3
  call void @lv_obj_class_init_obj(ptr noundef %49)
  call void @llvm.lifetime.start.p0(i64 8, ptr %7) #4
  %50 = load ptr, ptr %5, align 8, !tbaa !3
  store ptr %50, ptr %7, align 8, !tbaa !3
  %51 = load ptr, ptr %5, align 8, !tbaa !3
  call void @lv_obj_set_flex_flow(ptr noundef %51, i32 noundef 1)
  %52 = load i8, ptr %4, align 1, !tbaa !7, !range !9, !noundef !10
  %53 = trunc i8 %52 to i1
  br i1 %53, label %54, label %56

54:                                               ; preds = %48
  %55 = load ptr, ptr %5, align 8, !tbaa !3
  call void @lv_obj_add_flag(ptr noundef %55, i32 noundef 33554432)
  br label %56

56:                                               ; preds = %54, %48
  %57 = load ptr, ptr %5, align 8, !tbaa !3
  %58 = call ptr @lv_obj_class_create_obj(ptr noundef @lv_msgbox_content_class, ptr noundef %57)
  %59 = load ptr, ptr %7, align 8, !tbaa !3
  %60 = getelementptr inbounds nuw %struct._lv_msgbox_t, ptr %59, i32 0, i32 2
  store ptr %58, ptr %60, align 8, !tbaa !11
  br label %61

61:                                               ; preds = %56
  %62 = load ptr, ptr %5, align 8, !tbaa !3
  %63 = icmp ne ptr %62, null
  br i1 %63, label %70, label %64

64:                                               ; preds = %61
  br label %65

65:                                               ; preds = %64
  br label %66

66:                                               ; preds = %65
  br label %67

67:                                               ; preds = %66
  br label %68

68:                                               ; preds = %69, %67
  br label %69

69:                                               ; preds = %68
  br label %68

70:                                               ; preds = %61
  br label %71

71:                                               ; preds = %70
  br label %72

72:                                               ; preds = %71
  %73 = load ptr, ptr %7, align 8, !tbaa !3
  %74 = getelementptr inbounds nuw %struct._lv_msgbox_t, ptr %73, i32 0, i32 2
  %75 = load ptr, ptr %74, align 8, !tbaa !11
  %76 = icmp eq ptr %75, null
  br i1 %76, label %77, label %78

77:                                               ; preds = %72
  store ptr null, ptr %2, align 8
  store i32 1, ptr %6, align 4
  br label %89

78:                                               ; preds = %72
  %79 = load ptr, ptr %7, align 8, !tbaa !3
  %80 = getelementptr inbounds nuw %struct._lv_msgbox_t, ptr %79, i32 0, i32 2
  %81 = load ptr, ptr %80, align 8, !tbaa !11
  call void @lv_obj_class_init_obj(ptr noundef %81)
  %82 = load ptr, ptr %7, align 8, !tbaa !3
  %83 = getelementptr inbounds nuw %struct._lv_msgbox_t, ptr %82, i32 0, i32 2
  %84 = load ptr, ptr %83, align 8, !tbaa !11
  call void @lv_obj_set_flex_flow(ptr noundef %84, i32 noundef 1)
  %85 = load ptr, ptr %5, align 8, !tbaa !3
  %86 = call ptr @lv_obj_add_event_cb(ptr noundef %85, ptr noundef @msgbox_size_changed_event_cb, i32 noundef 49, ptr noundef null)
  %87 = load ptr, ptr %5, align 8, !tbaa !3
  call void @lv_obj_center(ptr noundef %87)
  %88 = load ptr, ptr %5, align 8, !tbaa !3
  store ptr %88, ptr %2, align 8
  store i32 1, ptr %6, align 4
  br label %89

89:                                               ; preds = %78, %77
  call void @llvm.lifetime.end.p0(i64 8, ptr %7) #4
  br label %90

90:                                               ; preds = %89, %47
  call void @llvm.lifetime.end.p0(i64 8, ptr %5) #4
  call void @llvm.lifetime.end.p0(i64 1, ptr %4) #4
  %91 = load ptr, ptr %2, align 8
  ret ptr %91
}