; Function Attrs: nounwind uwtable
define ptr @lv_msgbox_create(ptr noundef %0) local_unnamed_addr #0 {
  %2 = icmp eq ptr %0, null
  br i1 %2, label %3, label %7

3:                                                ; preds = %1
  %4 = tail call ptr @lv_layer_top() #3
  %5 = tail call ptr @lv_obj_class_create_obj(ptr noundef nonnull @lv_msgbox_backdrop_class, ptr noundef %4) #3
  %.not = icmp eq ptr %5, null
  br i1 %.not, label %.preheader, label %6

.preheader:                                       ; preds = %3, %.preheader
  br label %.preheader

6:                                                ; preds = %3
  tail call void @lv_obj_class_init_obj(ptr noundef nonnull %5) #3
  tail call void @lv_obj_remove_flag(ptr noundef nonnull %5, i32 noundef 131072) #3
  tail call void @lv_obj_set_size(ptr noundef nonnull %5, i32 noundef 536871012, i32 noundef 536871012) #3
  br label %7

7:                                                ; preds = %6, %1
  %.022 = phi ptr [ %5, %6 ], [ %0, %1 ]
  %8 = tail call ptr @lv_obj_class_create_obj(ptr noundef nonnull @lv_msgbox_class, ptr noundef nonnull %.022) #3
  %.not28 = icmp eq ptr %8, null
  br i1 %.not28, label %.preheader29, label %9

.preheader29:                                     ; preds = %7, %.preheader29
  br label %.preheader29

9:                                                ; preds = %7
  tail call void @lv_obj_class_init_obj(ptr noundef nonnull %8) #3
  tail call void @lv_obj_set_flex_flow(ptr noundef nonnull %8, i32 noundef 1) #3
  br i1 %2, label %10, label %11

10:                                               ; preds = %9
  tail call void @lv_obj_add_flag(ptr noundef nonnull %8, i32 noundef 33554432) #3
  br label %11

11:                                               ; preds = %10, %9
  %12 = tail call ptr @lv_obj_class_create_obj(ptr noundef nonnull @lv_msgbox_content_class, ptr noundef nonnull %8) #3
  %13 = getelementptr inbounds nuw i8, ptr %8, i64 72
  store ptr %12, ptr %13, align 8, !tbaa !3
  %14 = icmp eq ptr %12, null
  br i1 %14, label %18, label %15

15:                                               ; preds = %11
  tail call void @lv_obj_class_init_obj(ptr noundef nonnull %12) #3
  %16 = load ptr, ptr %13, align 8, !tbaa !3
  tail call void @lv_obj_set_flex_flow(ptr noundef %16, i32 noundef 1) #3
  %17 = tail call ptr @lv_obj_add_event_cb(ptr noundef nonnull %8, ptr noundef nonnull @msgbox_size_changed_event_cb, i32 noundef 49, ptr noundef null) #3
  tail call void @lv_obj_center(ptr noundef nonnull %8) #3
  br label %18

18:                                               ; preds = %15, %11
  %.1 = phi ptr [ %8, %15 ], [ null, %11 ]
  ret ptr %.1
}